; Function Attrs: mustprogress nounwind uwtable
define hidden void @_ZN15ClassListParser32constant_pool_resolution_warningEPKcz(ptr noundef nonnull align 8 dereferenceable(520) %0, ptr noundef %1, ...) local_unnamed_addr #0 align 2 {
  %3 = alloca [1 x %struct.__va_list_tag], align 16
  %4 = alloca %class.LogStream, align 8
  call void @llvm.va_start.p0(ptr nonnull %3)
  call void @_ZN12outputStreamC2Eb(ptr noundef nonnull align 8 dereferenceable(56) %4, i1 noundef zeroext false) #19
  store ptr getelementptr inbounds inrange(-16, 40) (i8, ptr @_ZTV17LogStreamImplBase, i64 16), ptr %4, align 8
  %5 = getelementptr inbounds i8, ptr %4, i64 56
  call void @_ZN17LogStreamImplBase10LineBufferC1Ev(ptr noundef nonnull align 8 dereferenceable(88) %5) #19
  %6 = getelementptr inbounds i8, ptr %4, i64 144
  store i32 4, ptr %6, align 8
  %.sroa.21.0..sroa_idx.i.i = getelementptr inbounds i8, ptr %4, i64 152
  store ptr @_ZN16LogTagSetMappingILN6LogTag4typeE14ELS1_131ELS1_0ELS1_0ELS1_0ELS1_0EE7_tagsetE, ptr %.sroa.21.0..sroa_idx.i.i, align 8
  store ptr getelementptr inbounds inrange(-16, 40) (i8, ptr @_ZTV9LogStream, i64 16), ptr %4, align 8
  call void @_ZN15ClassListParser21print_diagnostic_infoEP12outputStreamPKcP13__va_list_tag(ptr noundef nonnull align 8 dereferenceable(520) %0, ptr noundef nonnull %4, ptr noundef %1, ptr noundef nonnull %3)
  call void (ptr, ptr, ...) @_ZN12outputStream5printEPKcz(ptr noundef nonnull align 8 dereferenceable(56) %4, ptr noundef nonnull @.str.44) #19
  call void @llvm.va_end.p0(ptr nonnull %3)
  call void @_ZN13LogStreamImplI15LogTargetHandleED2Ev(ptr noundef nonnull align 8 dereferenceable(160) %4) #19
  ret void
}